target datalayout = "e-m:e-p270:32:32-p271:32:32-p272:64:64-i64:64-i128:128-f80:128-n8:16:32:64-S128"
target triple = "x86_64-pc-linux-gnu"

%struct.git_hash_algo = type { ptr, i32, i64, i64, i64, ptr, ptr, ptr, ptr, ptr, ptr, ptr, ptr, ptr }
%struct.repository = type { ptr, ptr, ptr, ptr, ptr, %struct.strmap, %struct.strmap, %struct.repo_path_cache, ptr, ptr, ptr, ptr, %struct.repo_settings, ptr, ptr, ptr, ptr, ptr, ptr, i32, i32, i32, ptr, ptr, i32, i32, i8 }
%struct.strmap = type { %struct.hashmap, ptr, i8 }
%struct.hashmap = type { ptr, ptr, ptr, i32, i32, i32, i32, i8 }
%struct.repo_path_cache = type { ptr, ptr, ptr, ptr, ptr, ptr, ptr }
%struct.repo_settings = type { i32, i32, i32, i32, i32, i32, i32, i32, i32, i32, i32, i32, ptr, i32, i32, i32, i32, i32, i32, i32, i64, i64, i64 }
%struct.commit_graph_data = type { i32, i64 }
%struct.commit_graph = type { ptr, i64, i8, i8, i32, %struct.object_id, ptr, ptr, i32, i32, ptr, ptr, ptr, ptr, ptr, ptr, i64, ptr, i64, ptr, i64, ptr, ptr, i64, ptr, ptr }
%struct.object_id = type { [32 x i8], i32 }
%struct.commit_list = type { ptr, ptr }

@the_repository = external global ptr, align 8
@hash_algos = external constant [3 x %struct.git_hash_algo], align 16
@.str.46 = private unnamed_addr constant [27 x i8] c"invalid parent position %u\00", align 1
@.str.47 = private unnamed_addr constant [25 x i8] c"could not find commit %s\00", align 1
@.str.48 = private unnamed_addr constant [15 x i8] c"commit-graph.c\00", align 1
@.str.49 = private unnamed_addr constant [18 x i8] c"NULL commit-graph\00", align 1
@.str.50 = private unnamed_addr constant [56 x i8] c"invalid commit position. commit-graph is likely corrupt\00", align 1
@.str.59 = private unnamed_addr constant [27 x i8] c"size_t overflow: %lu * %lu\00", align 1

; Function Attrs: inlinehint nounwind uwtable
define internal i32 @hash_algo_by_ptr(ptr noundef %0) #5 {
  %2 = alloca i32, align 4
  %3 = alloca ptr, align 8
  %4 = alloca i64, align 8
  %5 = alloca ptr, align 8
  %6 = alloca i32, align 4
  store ptr %0, ptr %3, align 8, !tbaa !114
  call void @llvm.lifetime.start.p0(i64 8, ptr %4) #12
  store i64 0, ptr %4, align 8, !tbaa !73
  br label %7

7:                                                ; preds = %23, %1
  %8 = load i64, ptr %4, align 8, !tbaa !73
  %9 = icmp ult i64 %8, 3
  br i1 %9, label %10, label %26

10:                                               ; preds = %7
  call void @llvm.lifetime.start.p0(i64 8, ptr %5) #12
  %11 = load i64, ptr %4, align 8, !tbaa !73
  %12 = getelementptr inbounds nuw [3 x %struct.git_hash_algo], ptr @hash_algos, i64 0, i64 %11
  store ptr %12, ptr %5, align 8, !tbaa !114
  %13 = load ptr, ptr %3, align 8, !tbaa !114
  %14 = load ptr, ptr %5, align 8, !tbaa !114
  %15 = icmp eq ptr %13, %14
  br i1 %15, label %16, label %19

16:                                               ; preds = %10
  %17 = load i64, ptr %4, align 8, !tbaa !73
  %18 = trunc i64 %17 to i32
  store i32 %18, ptr %2, align 4
  store i32 1, ptr %6, align 4
  br label %20

19:                                               ; preds = %10
  store i32 0, ptr %6, align 4
  br label %20

20:                                               ; preds = %19, %16
  call void @llvm.lifetime.end.p0(i64 8, ptr %5) #12
  %21 = load i32, ptr %6, align 4
  switch i32 %21, label %27 [
    i32 0, label %22
  ]

22:                                               ; preds = %20
  br label %23

23:                                               ; preds = %22
  %24 = load i64, ptr %4, align 8, !tbaa !73
  %25 = add i64 %24, 1
  store i64 %25, ptr %4, align 8, !tbaa !73
  br label %7, !llvm.loop !316

26:                                               ; preds = %7
  store i32 0, ptr %2, align 4
  store i32 1, ptr %6, align 4
  br label %27

27:                                               ; preds = %26, %20
  call void @llvm.lifetime.end.p0(i64 8, ptr %4) #12
  %28 = load i32, ptr %2, align 4
  ret i32 %28
}

; Function Attrs: inlinehint nounwind uwtable
define internal void @oidread(ptr noundef %0, ptr noundef %1, ptr noundef %2) #5 {
  %4 = alloca ptr, align 8
  %5 = alloca ptr, align 8
  %6 = alloca ptr, align 8
  store ptr %0, ptr %4, align 8, !tbaa !113
  store ptr %1, ptr %5, align 8, !tbaa !65
  store ptr %2, ptr %6, align 8, !tbaa !114
  %7 = load ptr, ptr %4, align 8, !tbaa !113
  %8 = getelementptr inbounds nuw %struct.object_id, ptr %7, i32 0, i32 0
  %9 = getelementptr inbounds [32 x i8], ptr %8, i64 0, i64 0
  %10 = load ptr, ptr %5, align 8, !tbaa !65
  %11 = load ptr, ptr %6, align 8, !tbaa !114
  %12 = getelementptr inbounds nuw %struct.git_hash_algo, ptr %11, i32 0, i32 2
  %13 = load i64, ptr %12, align 8, !tbaa !75
  call void @llvm.memcpy.p0.p0.i64(ptr align 4 %9, ptr align 1 %10, i64 %13, i1 false)
  %14 = load ptr, ptr %6, align 8, !tbaa !114
  %15 = getelementptr inbounds nuw %struct.git_hash_algo, ptr %14, i32 0, i32 2
  %16 = load i64, ptr %15, align 8, !tbaa !75
  %17 = icmp ult i64 %16, 32
  br i1 %17, label %18, label %30

18:                                               ; preds = %3
  %19 = load ptr, ptr %4, align 8, !tbaa !113
  %20 = getelementptr inbounds nuw %struct.object_id, ptr %19, i32 0, i32 0
  %21 = getelementptr inbounds [32 x i8], ptr %20, i64 0, i64 0
  %22 = load ptr, ptr %6, align 8, !tbaa !114
  %23 = getelementptr inbounds nuw %struct.git_hash_algo, ptr %22, i32 0, i32 2
  %24 = load i64, ptr %23, align 8, !tbaa !75
  %25 = getelementptr inbounds nuw i8, ptr %21, i64 %24
  %26 = load ptr, ptr %6, align 8, !tbaa !114
  %27 = getelementptr inbounds nuw %struct.git_hash_algo, ptr %26, i32 0, i32 2
  %28 = load i64, ptr %27, align 8, !tbaa !75
  %29 = sub i64 32, %28
  call void @llvm.memset.p0.i64(ptr align 1 %25, i8 0, i64 %29, i1 false)
  br label %30

30:                                               ; preds = %18, %3
  %31 = load ptr, ptr %6, align 8, !tbaa !114
  %32 = call i32 @hash_algo_by_ptr(ptr noundef %31)
  %33 = load ptr, ptr %4, align 8, !tbaa !113
  %34 = getelementptr inbounds nuw %struct.object_id, ptr %33, i32 0, i32 1
  store i32 %32, ptr %34, align 4, !tbaa !115
  ret void
}

; Function Attrs: inlinehint nounwind uwtable
define internal i64 @st_mult(i64 noundef %0, i64 noundef %1) #5 {
  %3 = alloca i64, align 8
  %4 = alloca i64, align 8
  store i64 %0, ptr %3, align 8, !tbaa !73
  store i64 %1, ptr %4, align 8, !tbaa !73
  %5 = load i64, ptr %3, align 8, !tbaa !73
  %6 = icmp ne i64 %5, 0
  br i1 %6, label %7, label %15

7:                                                ; preds = %2
  %8 = load i64, ptr %4, align 8, !tbaa !73
  %9 = load i64, ptr %3, align 8, !tbaa !73
  %10 = udiv i64 -1, %9
  %11 = icmp ugt i64 %8, %10
  br i1 %11, label %12, label %15

12:                                               ; preds = %7
  %13 = load i64, ptr %3, align 8, !tbaa !73
  %14 = load i64, ptr %4, align 8, !tbaa !73
  call void (ptr, ...) @die(ptr noundef @.str.59, i64 noundef %13, i64 noundef %14) #13
  unreachable

15:                                               ; preds = %7, %2
  %16 = load i64, ptr %3, align 8, !tbaa !73
  %17 = load i64, ptr %4, align 8, !tbaa !73
  %18 = mul i64 %16, %17
  ret i64 %18
}

; Function Attrs: nounwind uwtable
define internal void @load_oid_from_graph(ptr noundef %0, i32 noundef %1, ptr noundef %2) #0 {
  %4 = alloca ptr, align 8
  %5 = alloca i32, align 4
  %6 = alloca ptr, align 8
  %7 = alloca i32, align 4
  store ptr %0, ptr %4, align 8, !tbaa !79
  store i32 %1, ptr %5, align 4, !tbaa !4
  store ptr %2, ptr %6, align 8, !tbaa !113
  call void @llvm.lifetime.start.p0(i64 4, ptr %7) #12
  br label %8

8:                                                ; preds = %19, %3
  %9 = load ptr, ptr %4, align 8, !tbaa !79
  %10 = icmp ne ptr %9, null
  br i1 %10, label %11, label %17

11:                                               ; preds = %8
  %12 = load i32, ptr %5, align 4, !tbaa !4
  %13 = load ptr, ptr %4, align 8, !tbaa !79
  %14 = getelementptr inbounds nuw %struct.commit_graph, ptr %13, i32 0, i32 8
  %15 = load i32, ptr %14, align 8, !tbaa !129
  %16 = icmp ult i32 %12, %15
  br label %17

17:                                               ; preds = %11, %8
  %18 = phi i1 [ false, %8 ], [ %16, %11 ]
  br i1 %18, label %19, label %23

19:                                               ; preds = %17
  %20 = load ptr, ptr %4, align 8, !tbaa !79
  %21 = getelementptr inbounds nuw %struct.commit_graph, ptr %20, i32 0, i32 10
  %22 = load ptr, ptr %21, align 8, !tbaa !127
  store ptr %22, ptr %4, align 8, !tbaa !79
  br label %8, !llvm.loop !318

23:                                               ; preds = %17
  %24 = load ptr, ptr %4, align 8, !tbaa !79
  %25 = icmp ne ptr %24, null
  br i1 %25, label %27, label %26

26:                                               ; preds = %23
  call void (ptr, i32, ptr, ...) @BUG_fl(ptr noundef @.str.48, i32 noundef 860, ptr noundef @.str.49) #13
  unreachable

27:                                               ; preds = %23
  %28 = load i32, ptr %5, align 4, !tbaa !4
  %29 = load ptr, ptr %4, align 8, !tbaa !79
  %30 = getelementptr inbounds nuw %struct.commit_graph, ptr %29, i32 0, i32 4
  %31 = load i32, ptr %30, align 4, !tbaa !102
  %32 = load ptr, ptr %4, align 8, !tbaa !79
  %33 = getelementptr inbounds nuw %struct.commit_graph, ptr %32, i32 0, i32 8
  %34 = load i32, ptr %33, align 8, !tbaa !129
  %35 = add i32 %31, %34
  %36 = icmp uge i32 %28, %35
  br i1 %36, label %37, label %39

37:                                               ; preds = %27
  %38 = call ptr @_(ptr noundef @.str.50)
  call void (ptr, ...) @die(ptr noundef %38) #13
  unreachable

39:                                               ; preds = %27
  %40 = load i32, ptr %5, align 4, !tbaa !4
  %41 = load ptr, ptr %4, align 8, !tbaa !79
  %42 = getelementptr inbounds nuw %struct.commit_graph, ptr %41, i32 0, i32 8
  %43 = load i32, ptr %42, align 8, !tbaa !129
  %44 = sub i32 %40, %43
  store i32 %44, ptr %7, align 4, !tbaa !4
  %45 = load ptr, ptr %6, align 8, !tbaa !113
  %46 = load ptr, ptr %4, align 8, !tbaa !79
  %47 = getelementptr inbounds nuw %struct.commit_graph, ptr %46, i32 0, i32 12
  %48 = load ptr, ptr %47, align 8, !tbaa !105
  %49 = load ptr, ptr %4, align 8, !tbaa !79
  %50 = getelementptr inbounds nuw %struct.commit_graph, ptr %49, i32 0, i32 2
  %51 = load i8, ptr %50, align 8, !tbaa !90
  %52 = zext i8 %51 to i64
  %53 = load i32, ptr %7, align 4, !tbaa !4
  %54 = zext i32 %53 to i64
  %55 = call i64 @st_mult(i64 noundef %52, i64 noundef %54)
  %56 = getelementptr inbounds nuw i8, ptr %48, i64 %55
  %57 = load ptr, ptr @the_repository, align 8, !tbaa !8
  %58 = getelementptr inbounds nuw %struct.repository, ptr %57, i32 0, i32 17
  %59 = load ptr, ptr %58, align 8, !tbaa !74
  call void @oidread(ptr noundef %45, ptr noundef %56, ptr noundef %59)
  call void @llvm.lifetime.end.p0(i64 4, ptr %7) #12
  ret void
}

; Function Attrs: nounwind uwtable
define internal ptr @insert_parent_or_die(ptr noundef %0, ptr noundef %1, i32 noundef %2, ptr noundef %3) #0 {
  %5 = alloca ptr, align 8
  %6 = alloca ptr, align 8
  %7 = alloca i32, align 4
  %8 = alloca ptr, align 8
  %9 = alloca ptr, align 8
  %10 = alloca %struct.object_id, align 4
  store ptr %0, ptr %5, align 8, !tbaa !8
  store ptr %1, ptr %6, align 8, !tbaa !79
  store i32 %2, ptr %7, align 4, !tbaa !4
  store ptr %3, ptr %8, align 8, !tbaa !149
  call void @llvm.lifetime.start.p0(i64 8, ptr %9) #12
  call void @llvm.lifetime.start.p0(i64 36, ptr %10) #12
  %11 = load i32, ptr %7, align 4, !tbaa !4
  %12 = load ptr, ptr %6, align 8, !tbaa !79
  %13 = getelementptr inbounds nuw %struct.commit_graph, ptr %12, i32 0, i32 4
  %14 = load i32, ptr %13, align 4, !tbaa !102
  %15 = load ptr, ptr %6, align 8, !tbaa !79
  %16 = getelementptr inbounds nuw %struct.commit_graph, ptr %15, i32 0, i32 8
  %17 = load i32, ptr %16, align 8, !tbaa !129
  %18 = add i32 %14, %17
  %19 = icmp uge i32 %11, %18
  br i1 %19, label %20, label %22

20:                                               ; preds = %4
  %21 = load i32, ptr %7, align 4, !tbaa !4
  call void (ptr, ...) @die(ptr noundef @.str.46, i32 noundef %21) #13
  unreachable

22:                                               ; preds = %4
  %23 = load ptr, ptr %6, align 8, !tbaa !79
  %24 = load i32, ptr %7, align 4, !tbaa !4
  call void @load_oid_from_graph(ptr noundef %23, i32 noundef %24, ptr noundef %10)
  %25 = load ptr, ptr %5, align 8, !tbaa !8
  %26 = call ptr @lookup_commit(ptr noundef %25, ptr noundef %10)
  store ptr %26, ptr %9, align 8, !tbaa !52
  %27 = load ptr, ptr %9, align 8, !tbaa !52
  %28 = icmp ne ptr %27, null
  br i1 %28, label %32, label %29

29:                                               ; preds = %22
  %30 = call ptr @_(ptr noundef @.str.47)
  %31 = call ptr @oid_to_hex(ptr noundef %10)
  call void (ptr, ...) @die(ptr noundef %30, ptr noundef %31) #13
  unreachable

32:                                               ; preds = %22
  %33 = load i32, ptr %7, align 4, !tbaa !4
  %34 = load ptr, ptr %9, align 8, !tbaa !52
  %35 = call ptr @commit_graph_data_at(ptr noundef %34)
  %36 = getelementptr inbounds nuw %struct.commit_graph_data, ptr %35, i32 0, i32 0
  store i32 %33, ptr %36, align 8, !tbaa !56
  %37 = load ptr, ptr %9, align 8, !tbaa !52
  %38 = load ptr, ptr %8, align 8, !tbaa !149
  %39 = call ptr @commit_list_insert(ptr noundef %37, ptr noundef %38)
  %40 = getelementptr inbounds nuw %struct.commit_list, ptr %39, i32 0, i32 1
  call void @llvm.lifetime.end.p0(i64 36, ptr %10) #12
  call void @llvm.lifetime.end.p0(i64 8, ptr %9) #12
  ret ptr %40
}