; Function Attrs: nounwind uwtable
define internal fastcc nonnull ptr @insert_parent_or_die(ptr noundef %0, ptr noundef readonly captures(none) %1, i32 noundef %2, ptr noundef %3) unnamed_addr #0 {
  %5 = alloca %struct.object_id, align 4
  call void @llvm.lifetime.start.p0(i64 36, ptr nonnull %5) #24
  %6 = getelementptr inbounds nuw i8, ptr %1, i64 20
  %7 = load i32, ptr %6, align 4, !tbaa !97
  %8 = getelementptr inbounds nuw i8, ptr %1, i64 80
  %9 = load i32, ptr %8, align 8, !tbaa !116
  %10 = add i32 %9, %7
  %.not = icmp ult i32 %2, %10
  br i1 %.not, label %.lr.ph.i, label %11

11:                                               ; preds = %4
  tail call void (ptr, ...) @die(ptr noundef nonnull @.str.46, i32 noundef %2) #25
  unreachable

.lr.ph.i:                                         ; preds = %4, %15
  %.020.i = phi ptr [ %17, %15 ], [ %1, %4 ]
  %12 = getelementptr inbounds nuw i8, ptr %.020.i, i64 80
  %13 = load i32, ptr %12, align 8, !tbaa !116
  %14 = icmp ult i32 %2, %13
  br i1 %14, label %15, label %.critedge.i

15:                                               ; preds = %.lr.ph.i
  %16 = getelementptr inbounds nuw i8, ptr %.020.i, i64 88
  %17 = load ptr, ptr %16, align 8, !tbaa !114
  %.not.i = icmp eq ptr %17, null
  br i1 %.not.i, label %.critedge15.i, label %.lr.ph.i, !llvm.loop !263

.critedge15.i:                                    ; preds = %15
  tail call void (ptr, i32, ptr, ...) @BUG_fl(ptr noundef nonnull @.str.48, i32 noundef 860, ptr noundef nonnull @.str.49) #25
  unreachable

.critedge.i:                                      ; preds = %.lr.ph.i
  %18 = getelementptr inbounds nuw i8, ptr %.020.i, i64 20
  %19 = load i32, ptr %18, align 4, !tbaa !97
  %20 = add i32 %19, %13
  %.not14.i = icmp ult i32 %2, %20
  br i1 %.not14.i, label %st_mult.exit.i, label %21

21:                                               ; preds = %.critedge.i
  %22 = tail call fastcc ptr @_(ptr noundef nonnull @.str.50)
  tail call void (ptr, ...) @die(ptr noundef %22) #25
  unreachable

st_mult.exit.i:                                   ; preds = %.critedge.i
  %23 = sub i32 %2, %13
  %24 = getelementptr inbounds nuw i8, ptr %.020.i, i64 104
  %25 = load ptr, ptr %24, align 8, !tbaa !99
  %26 = getelementptr inbounds nuw i8, ptr %.020.i, i64 16
  %27 = load i8, ptr %26, align 8, !tbaa !81
  %28 = zext i8 %27 to i64
  %29 = zext i32 %23 to i64
  %30 = mul nuw nsw i64 %28, %29
  %31 = getelementptr inbounds nuw i8, ptr %25, i64 %30
  %32 = load ptr, ptr @the_repository, align 8, !tbaa !4
  %33 = getelementptr inbounds nuw i8, ptr %32, i64 400
  %34 = load ptr, ptr %33, align 8, !tbaa !71
  %35 = getelementptr inbounds nuw i8, ptr %34, i64 16
  %36 = load i64, ptr %35, align 8, !tbaa !72
  call void @llvm.memcpy.p0.p0.i64(ptr nonnull align 4 %5, ptr readonly align 1 %31, i64 %36, i1 false)
  %37 = icmp ult i64 %36, 32
  br i1 %37, label %38, label %.preheader

38:                                               ; preds = %st_mult.exit.i
  %39 = getelementptr inbounds nuw i8, ptr %5, i64 %36
  %40 = sub nuw nsw i64 32, %36
  call void @llvm.memset.p0.i64(ptr nonnull align 1 %39, i8 0, i64 %40, i1 false)
  br label %.preheader

.preheader:                                       ; preds = %38, %st_mult.exit.i
  br label %41

41:                                               ; preds = %.preheader, %43
  %.0811.i.i.i = phi i64 [ %44, %43 ], [ 0, %.preheader ]
  %42 = getelementptr inbounds nuw [3 x %struct.git_hash_algo], ptr @hash_algos, i64 0, i64 %.0811.i.i.i
  %.not.i.i.i = icmp eq ptr %34, %42
  br i1 %.not.i.i.i, label %.split.loop.exit9.i.i.i, label %43

43:                                               ; preds = %41
  %44 = add nuw nsw i64 %.0811.i.i.i, 1
  %exitcond.not.i.i.i = icmp eq i64 %44, 3
  br i1 %exitcond.not.i.i.i, label %load_oid_from_graph.exit, label %41, !llvm.loop !92

.split.loop.exit9.i.i.i:                          ; preds = %41
  %45 = trunc nuw nsw i64 %.0811.i.i.i to i32
  br label %load_oid_from_graph.exit

load_oid_from_graph.exit:                         ; preds = %43, %.split.loop.exit9.i.i.i
  %.2.i.i.i = phi i32 [ %45, %.split.loop.exit9.i.i.i ], [ 0, %43 ]
  %46 = getelementptr inbounds nuw i8, ptr %5, i64 32
  store i32 %.2.i.i.i, ptr %46, align 4, !tbaa !94
  %47 = call ptr @lookup_commit(ptr noundef %0, ptr noundef nonnull %5) #24
  %.not12 = icmp eq ptr %47, null
  br i1 %.not12, label %48, label %51

48:                                               ; preds = %load_oid_from_graph.exit
  %49 = call fastcc ptr @_(ptr noundef nonnull @.str.47)
  %50 = call ptr @oid_to_hex(ptr noundef nonnull %5) #24
  call void (ptr, ...) @die(ptr noundef %49, ptr noundef %50) #25
  unreachable

51:                                               ; preds = %load_oid_from_graph.exit
  %52 = getelementptr i8, ptr %47, i64 64
  %.val = load i32, ptr %52, align 8, !tbaa !49
  %53 = call fastcc ptr @commit_graph_data_at(i32 %.val)
  store i32 %2, ptr %53, align 8, !tbaa !61
  %54 = call ptr @commit_list_insert(ptr noundef nonnull %47, ptr noundef %3) #24
  %55 = getelementptr inbounds nuw i8, ptr %54, i64 8
  call void @llvm.lifetime.end.p0(i64 36, ptr nonnull %5) #24
  ret ptr %55
}